target datalayout = "e-m:e-p270:32:32-p271:32:32-p272:64:64-i64:64-i128:128-f80:128-n8:16:32:64-S128"
target triple = "x86_64-pc-linux-gnu"

; Function Attrs: nounwind uwtable
define internal i32 @zueci_u_cp437(i32 noundef %0, ptr noundef %1) #0 {
  %3 = alloca i32, align 4
  %4 = alloca i32, align 4
  %5 = alloca ptr, align 8
  %6 = alloca i32, align 4
  %7 = alloca i32, align 4
  %8 = alloca i32, align 4
  store i32 %0, ptr %4, align 4
  store ptr %1, ptr %5, align 8
  %9 = load i32, ptr %4, align 4
  %10 = icmp ult i32 %9, 128
  br i1 %10, label %11, label %15

11:                                               ; preds = %2
  %12 = load i32, ptr %4, align 4
  %13 = trunc i32 %12 to i8
  %14 = load ptr, ptr %5, align 8
  store i8 %13, ptr %14, align 1
  store i32 1, ptr %3, align 4
  br label %55

15:                                               ; preds = %2
  store i32 0, ptr %6, align 4
  store i32 127, ptr %7, align 4
  br label %16

16:                                               ; preds = %53, %15
  %17 = load i32, ptr %6, align 4
  %18 = load i32, ptr %7, align 4
  %19 = icmp sle i32 %17, %18
  br i1 %19, label %20, label %54

20:                                               ; preds = %16
  %21 = load i32, ptr %6, align 4
  %22 = load i32, ptr %7, align 4
  %23 = add nsw i32 %21, %22
  %24 = ashr i32 %23, 1
  store i32 %24, ptr %8, align 4
  %25 = load i32, ptr %8, align 4
  %26 = sext i32 %25 to i64
  %27 = getelementptr inbounds [128 x i16], ptr @zueci_cp437_u_u, i64 0, i64 %26
  %28 = load i16, ptr %27, align 2
  %29 = zext i16 %28 to i32
  %30 = load i32, ptr %4, align 4
  %31 = icmp ult i32 %29, %30
  br i1 %31, label %32, label %35

32:                                               ; preds = %20
  %33 = load i32, ptr %8, align 4
  %34 = add nsw i32 %33, 1
  store i32 %34, ptr %6, align 4
  br label %53

35:                                               ; preds = %20
  %36 = load i32, ptr %8, align 4
  %37 = sext i32 %36 to i64
  %38 = getelementptr inbounds [128 x i16], ptr @zueci_cp437_u_u, i64 0, i64 %37
  %39 = load i16, ptr %38, align 2
  %40 = zext i16 %39 to i32
  %41 = load i32, ptr %4, align 4
  %42 = icmp ugt i32 %40, %41
  br i1 %42, label %43, label %46

43:                                               ; preds = %35
  %44 = load i32, ptr %8, align 4
  %45 = sub nsw i32 %44, 1
  store i32 %45, ptr %7, align 4
  br label %52

46:                                               ; preds = %35
  %47 = load i32, ptr %8, align 4
  %48 = sext i32 %47 to i64
  %49 = getelementptr inbounds [128 x i8], ptr @zueci_cp437_u_sb, i64 0, i64 %48
  %50 = load i8, ptr %49, align 1
  %51 = load ptr, ptr %5, align 8
  store i8 %50, ptr %51, align 1
  store i32 1, ptr %3, align 4
  br label %55

52:                                               ; preds = %43
  br label %53

53:                                               ; preds = %52, %32
  br label %16, !llvm.loop !9

54:                                               ; preds = %16
  store i32 0, ptr %3, align 4
  br label %55

55:                                               ; preds = %54, %46, %11
  %56 = load i32, ptr %3, align 4
  ret i32 %56
}