; Function Attrs: nofree norecurse nosync nounwind memory(argmem: write) uwtable
define internal noundef i32 @zueci_u_cp437(i32 noundef %0, ptr nocapture noundef writeonly %1) #1 {
  %3 = icmp ult i32 %0, 128
  br i1 %3, label %4, label %.preheader

4:                                                ; preds = %2
  %5 = trunc nuw nsw i32 %0 to i8
  br label %.loopexit.sink.split

.preheader:                                       ; preds = %2, %22
  %.01522 = phi i32 [ %.1, %22 ], [ 127, %2 ]
  %.01621 = phi i32 [ %.117, %22 ], [ 0, %2 ]
  %6 = add nsw i32 %.01522, %.01621
  %7 = ashr i32 %6, 1
  %8 = sext i32 %7 to i64
  %9 = getelementptr inbounds [128 x i16], ptr @zueci_cp437_u_u, i64 0, i64 %8
  %10 = load i16, ptr %9, align 2
  %11 = zext i16 %10 to i32
  %12 = icmp ult i32 %11, %0
  br i1 %12, label %13, label %15

13:                                               ; preds = %.preheader
  %14 = add nsw i32 %7, 1
  br label %22

15:                                               ; preds = %.preheader
  %16 = icmp ugt i32 %11, %0
  br i1 %16, label %17, label %19

17:                                               ; preds = %15
  %18 = add nsw i32 %7, -1
  br label %22

19:                                               ; preds = %15
  %20 = getelementptr inbounds [128 x i8], ptr @zueci_cp437_u_sb, i64 0, i64 %8
  %21 = load i8, ptr %20, align 1
  br label %.loopexit.sink.split

22:                                               ; preds = %17, %13
  %.117 = phi i32 [ %14, %13 ], [ %.01621, %17 ]
  %.1 = phi i32 [ %.01522, %13 ], [ %18, %17 ]
  %.not = icmp sgt i32 %.117, %.1
  br i1 %.not, label %.loopexit, label %.preheader, !llvm.loop !8

.loopexit.sink.split:                             ; preds = %4, %19
  %.sink = phi i8 [ %21, %19 ], [ %5, %4 ]
  store i8 %.sink, ptr %1, align 1
  br label %.loopexit

.loopexit:                                        ; preds = %22, %.loopexit.sink.split
  %.0 = phi i32 [ 1, %.loopexit.sink.split ], [ 0, %22 ]
  ret i32 %.0
}